target datalayout = "e-m:e-p270:32:32-p271:32:32-p272:64:64-i64:64-i128:128-f80:128-n8:16:32:64-S128"
target triple = "x86_64-pc-linux-gnu"

; Function Attrs: mustprogress uwtable
define internal void @_ZN12_GLOBAL__N_139MarshallingTest_TestFloatRoundTrip_Test8TestBodyEv(ptr noundef nonnull align 8 dereferenceable(16) %0) unnamed_addr #6 align 2 {
  %2 = alloca ptr, align 8
  store ptr %0, ptr %2, align 8, !tbaa !428
  call void @_ZN12_GLOBAL__N_113TestRoundtripIfEEvT_(float noundef 0x3FB99999A0000000)
  call void @_ZN12_GLOBAL__N_113TestRoundtripIfEEvT_(float noundef 0x3FBEB851E0000000)
  call void @_ZN12_GLOBAL__N_113TestRoundtripIfEEvT_(float noundef 0x3FBF7CEDA0000000)
  call void @_ZN12_GLOBAL__N_113TestRoundtripIfEEvT_(float noundef 0x3FBF972480000000)
  call void @_ZN12_GLOBAL__N_113TestRoundtripIfEEvT_(float noundef 0x3FBF9A6B60000000)
  call void @_ZN12_GLOBAL__N_113TestRoundtripIfEEvT_(float noundef 0x3FBF9AD000000000)
  call void @_ZN12_GLOBAL__N_113TestRoundtripIfEEvT_(float noundef 0x3FBF9ADBC0000000)
  call void @_ZN12_GLOBAL__N_113TestRoundtripIfEEvT_(float noundef 0x3FBF9ADD20000000)
  call void @_ZN12_GLOBAL__N_113TestRoundtripIfEEvT_(float noundef 0x43E158E460000000)
  call void @_ZN12_GLOBAL__N_113TestRoundtripIfEEvT_(float noundef 0x43E4D11200000000)
  call void @_ZN12_GLOBAL__N_113TestRoundtripIfEEvT_(float noundef 0x43E5564C20000000)
  call void @_ZN12_GLOBAL__N_113TestRoundtripIfEEvT_(float noundef 0x43E5680FA0000000)
  call void @_ZN12_GLOBAL__N_113TestRoundtripIfEEvT_(float noundef 0x43E56A4800000000)
  call void @_ZN12_GLOBAL__N_113TestRoundtripIfEEvT_(float noundef 0x43E56A8C40000000)
  call void @_ZN12_GLOBAL__N_113TestRoundtripIfEEvT_(float noundef 0x43E56A9420000000)
  call void @_ZN12_GLOBAL__N_113TestRoundtripIfEEvT_(float noundef 0x43E56A9520000000)
  call void @_ZN12_GLOBAL__N_113TestRoundtripIfEEvT_(float noundef 0x3B92E3B400000000)
  call void @_ZN12_GLOBAL__N_113TestRoundtripIfEEvT_(float noundef 0x3B96AAD800000000)
  call void @_ZN12_GLOBAL__N_113TestRoundtripIfEEvT_(float noundef 0x3B973BEA40000000)
  call void @_ZN12_GLOBAL__N_113TestRoundtripIfEEvT_(float noundef 0x3B974F4200000000)
  call void @_ZN12_GLOBAL__N_113TestRoundtripIfEEvT_(float noundef 0x3B9751AD00000000)
  call void @_ZN12_GLOBAL__N_113TestRoundtripIfEEvT_(float noundef 0x3B9751F740000000)
  call void @_ZN12_GLOBAL__N_113TestRoundtripIfEEvT_(float noundef 0x3B9751FFE0000000)
  call void @_ZN12_GLOBAL__N_113TestRoundtripIfEEvT_(float noundef 0x3B975200E0000000)
  ret void
}