; Function Attrs: mustprogress uwtable
define internal void @_ZN12_GLOBAL__N_139MarshallingTest_TestFloatRoundTrip_Test8TestBodyEv(ptr nonnull readnone align 8 captures(none) %0) unnamed_addr #4 align 2 {
  tail call fastcc void @_ZN12_GLOBAL__N_113TestRoundtripIfEEvT_(float noundef 0x3FB99999A0000000)
  tail call fastcc void @_ZN12_GLOBAL__N_113TestRoundtripIfEEvT_(float noundef 0x3FBEB851E0000000)
  tail call fastcc void @_ZN12_GLOBAL__N_113TestRoundtripIfEEvT_(float noundef 0x3FBF7CEDA0000000)
  tail call fastcc void @_ZN12_GLOBAL__N_113TestRoundtripIfEEvT_(float noundef 0x3FBF972480000000)
  tail call fastcc void @_ZN12_GLOBAL__N_113TestRoundtripIfEEvT_(float noundef 0x3FBF9A6B60000000)
  tail call fastcc void @_ZN12_GLOBAL__N_113TestRoundtripIfEEvT_(float noundef 0x3FBF9AD000000000)
  tail call fastcc void @_ZN12_GLOBAL__N_113TestRoundtripIfEEvT_(float noundef 0x3FBF9ADBC0000000)
  tail call fastcc void @_ZN12_GLOBAL__N_113TestRoundtripIfEEvT_(float noundef 0x3FBF9ADD20000000)
  tail call fastcc void @_ZN12_GLOBAL__N_113TestRoundtripIfEEvT_(float noundef 0x43E158E460000000)
  tail call fastcc void @_ZN12_GLOBAL__N_113TestRoundtripIfEEvT_(float noundef 0x43E4D11200000000)
  tail call fastcc void @_ZN12_GLOBAL__N_113TestRoundtripIfEEvT_(float noundef 0x43E5564C20000000)
  tail call fastcc void @_ZN12_GLOBAL__N_113TestRoundtripIfEEvT_(float noundef 0x43E5680FA0000000)
  tail call fastcc void @_ZN12_GLOBAL__N_113TestRoundtripIfEEvT_(float noundef 0x43E56A4800000000)
  tail call fastcc void @_ZN12_GLOBAL__N_113TestRoundtripIfEEvT_(float noundef 0x43E56A8C40000000)
  tail call fastcc void @_ZN12_GLOBAL__N_113TestRoundtripIfEEvT_(float noundef 0x43E56A9420000000)
  tail call fastcc void @_ZN12_GLOBAL__N_113TestRoundtripIfEEvT_(float noundef 0x43E56A9520000000)
  tail call fastcc void @_ZN12_GLOBAL__N_113TestRoundtripIfEEvT_(float noundef 0x3B92E3B400000000)
  tail call fastcc void @_ZN12_GLOBAL__N_113TestRoundtripIfEEvT_(float noundef 0x3B96AAD800000000)
  tail call fastcc void @_ZN12_GLOBAL__N_113TestRoundtripIfEEvT_(float noundef 0x3B973BEA40000000)
  tail call fastcc void @_ZN12_GLOBAL__N_113TestRoundtripIfEEvT_(float noundef 0x3B974F4200000000)
  tail call fastcc void @_ZN12_GLOBAL__N_113TestRoundtripIfEEvT_(float noundef 0x3B9751AD00000000)
  tail call fastcc void @_ZN12_GLOBAL__N_113TestRoundtripIfEEvT_(float noundef 0x3B9751F740000000)
  tail call fastcc void @_ZN12_GLOBAL__N_113TestRoundtripIfEEvT_(float noundef 0x3B9751FFE0000000)
  tail call fastcc void @_ZN12_GLOBAL__N_113TestRoundtripIfEEvT_(float noundef 0x3B975200E0000000)
  ret void
}